; Function Attrs: mustprogress uwtable
define { i64, i64 } @_ZN7xgboost10collective10SockAddrV48LoopbackEv() local_unnamed_addr #3 align 2 {
  %1 = alloca %"class.xgboost::collective::SockAddress", align 4
  call void @llvm.lifetime.start.p0(i64 48, ptr nonnull %1) #14
  call void @_ZN7xgboost10collective15MakeSockAddressENS_10StringViewEt(ptr dead_on_unwind nonnull writable sret(%"class.xgboost::collective::SockAddress") align 4 %1, ptr nonnull @.str.3, i64 9, i16 noundef zeroext 0)
  %2 = getelementptr inbounds nuw i8, ptr %1, i64 28
  %.sroa.0.0.copyload = load i64, ptr %2, align 4
  %.sroa.2.0..sroa_idx = getelementptr inbounds nuw i8, ptr %1, i64 36
  %.sroa.2.0.copyload = load i64, ptr %.sroa.2.0..sroa_idx, align 4, !tbaa !13
  call void @llvm.lifetime.end.p0(i64 48, ptr nonnull %1) #14
  %.fca.0.insert = insertvalue { i64, i64 } poison, i64 %.sroa.0.0.copyload, 0
  %.fca.1.insert = insertvalue { i64, i64 } %.fca.0.insert, i64 %.sroa.2.0.copyload, 1
  ret { i64, i64 } %.fca.1.insert
}